target datalayout = "e-m:e-p270:32:32-p271:32:32-p272:64:64-i64:64-i128:128-f80:128-n8:16:32:64-S128"
target triple = "x86_64-pc-linux-gnu"

%struct._zval_struct = type { %union._zend_value, %union.anon, %union.anon.2 }
%union._zend_value = type { i64 }
%union.anon = type { i32 }
%union.anon.2 = type { i32 }
%struct._zend_refcounted_h = type { i32, %union.anon.3 }
%union.anon.3 = type { i32 }
%struct.anon.0 = type { i8, i8, %union.anon.1 }
%union.anon.1 = type { i16 }
%struct._zend_refcounted = type { %struct._zend_refcounted_h }

; Function Attrs: alwaysinline nounwind uwtable
define internal i32 @zend_gc_addref(ptr noundef %0) #5 {
  %2 = alloca ptr, align 8
  store ptr %0, ptr %2, align 8, !tbaa !27
  br label %3

3:                                                ; preds = %1
  br label %4

4:                                                ; preds = %3
  %5 = load ptr, ptr %2, align 8, !tbaa !27
  %6 = getelementptr inbounds nuw %struct._zend_refcounted_h, ptr %5, i32 0, i32 0
  %7 = load i32, ptr %6, align 4, !tbaa !29
  %8 = add i32 %7, 1
  store i32 %8, ptr %6, align 4, !tbaa !29
  ret i32 %8
}

; Function Attrs: alwaysinline nounwind uwtable
define internal i64 @zend_dval_to_lval(double noundef %0) #5 {
  %2 = alloca i64, align 8
  %3 = alloca double, align 8
  store double %0, ptr %3, align 8, !tbaa !94
  %4 = load double, ptr %3, align 8, !tbaa !94
  %5 = call i1 @llvm.is.fpclass.f64(double %4, i32 504)
  %6 = xor i1 %5, true
  %7 = xor i1 %6, true
  %8 = xor i1 %7, true
  %9 = zext i1 %8 to i32
  %10 = sext i32 %9 to i64
  %11 = call i64 @llvm.expect.i64(i64 %10, i64 0)
  %12 = icmp ne i64 %11, 0
  br i1 %12, label %22, label %13

13:                                               ; preds = %1
  %14 = load double, ptr %3, align 8, !tbaa !94
  %15 = call i1 @llvm.is.fpclass.f64(double %14, i32 3)
  %16 = xor i1 %15, true
  %17 = xor i1 %16, true
  %18 = zext i1 %17 to i32
  %19 = sext i32 %18 to i64
  %20 = call i64 @llvm.expect.i64(i64 %19, i64 0)
  %21 = icmp ne i64 %20, 0
  br i1 %21, label %22, label %23

22:                                               ; preds = %13, %1
  store i64 0, ptr %2, align 8
  br label %36

23:                                               ; preds = %13
  %24 = load double, ptr %3, align 8, !tbaa !94
  %25 = fcmp oge double %24, 0x43E0000000000000
  br i1 %25, label %29, label %26

26:                                               ; preds = %23
  %27 = load double, ptr %3, align 8, !tbaa !94
  %28 = fcmp olt double %27, 0xC3E0000000000000
  br i1 %28, label %29, label %32

29:                                               ; preds = %26, %23
  %30 = load double, ptr %3, align 8, !tbaa !94
  %31 = call i64 @zend_dval_to_lval_slow(double noundef %30)
  store i64 %31, ptr %2, align 8
  br label %36

32:                                               ; preds = %26
  br label %33

33:                                               ; preds = %32
  %34 = load double, ptr %3, align 8, !tbaa !94
  %35 = fptosi double %34 to i64
  store i64 %35, ptr %2, align 8
  br label %36

36:                                               ; preds = %33, %29, %22
  %37 = load i64, ptr %2, align 8
  ret i64 %37
}

; Function Attrs: alwaysinline nounwind uwtable
define internal zeroext i8 @zval_get_type(ptr noundef %0) #5 {
  %2 = alloca ptr, align 8
  store ptr %0, ptr %2, align 8, !tbaa !13
  %3 = load ptr, ptr %2, align 8, !tbaa !13
  %4 = getelementptr inbounds nuw %struct._zval_struct, ptr %3, i32 0, i32 1
  %5 = getelementptr inbounds nuw %struct.anon.0, ptr %4, i32 0, i32 0
  %6 = load i8, ptr %5, align 8, !tbaa !17
  ret i8 %6
}

; Function Attrs: nounwind uwtable
define hidden void @zflf_max_2(ptr noundef %0, ptr noundef %1, ptr noundef %2) #0 {
  %4 = alloca ptr, align 8
  %5 = alloca ptr, align 8
  %6 = alloca ptr, align 8
  %7 = alloca ptr, align 8
  %8 = alloca ptr, align 8
  %9 = alloca double, align 8
  %10 = alloca i64, align 8
  %11 = alloca ptr, align 8
  %12 = alloca ptr, align 8
  %13 = alloca ptr, align 8
  %14 = alloca i32, align 4
  %15 = alloca i32, align 4
  %16 = alloca ptr, align 8
  %17 = alloca ptr, align 8
  %18 = alloca ptr, align 8
  %19 = alloca i32, align 4
  %20 = alloca ptr, align 8
  %21 = alloca ptr, align 8
  %22 = alloca ptr, align 8
  %23 = alloca i32, align 4
  %24 = alloca ptr, align 8
  %25 = alloca ptr, align 8
  %26 = alloca ptr, align 8
  %27 = alloca i32, align 4
  store ptr %0, ptr %4, align 8, !tbaa !13
  store ptr %1, ptr %5, align 8, !tbaa !13
  store ptr %2, ptr %6, align 8, !tbaa !13
  call void @llvm.lifetime.start.p0(i64 8, ptr %7) #17
  call void @llvm.lifetime.start.p0(i64 8, ptr %8) #17
  %28 = load ptr, ptr %5, align 8, !tbaa !13
  store ptr %28, ptr %7, align 8, !tbaa !13
  %29 = load ptr, ptr %6, align 8, !tbaa !13
  store ptr %29, ptr %8, align 8, !tbaa !13
  call void @llvm.lifetime.start.p0(i64 8, ptr %9) #17
  %30 = load ptr, ptr %7, align 8, !tbaa !13
  %31 = call zeroext i8 @zval_get_type(ptr noundef %30)
  %32 = zext i8 %31 to i32
  %33 = icmp eq i32 %32, 4
  br i1 %33, label %34, label %101

34:                                               ; preds = %3
  call void @llvm.lifetime.start.p0(i64 8, ptr %10) #17
  %35 = load ptr, ptr %7, align 8, !tbaa !13
  %36 = getelementptr inbounds nuw %struct._zval_struct, ptr %35, i32 0, i32 0
  %37 = load i64, ptr %36, align 8, !tbaa !17
  store i64 %37, ptr %10, align 8, !tbaa !15
  %38 = load ptr, ptr %8, align 8, !tbaa !13
  %39 = call zeroext i8 @zval_get_type(ptr noundef %38)
  %40 = zext i8 %39 to i32
  %41 = icmp eq i32 %40, 4
  %42 = xor i1 %41, true
  %43 = xor i1 %42, true
  %44 = zext i1 %43 to i32
  %45 = sext i32 %44 to i64
  %46 = call i64 @llvm.expect.i64(i64 %45, i64 1)
  %47 = icmp ne i64 %46, 0
  br i1 %47, label %48, label %82

48:                                               ; preds = %34
  br label %49

49:                                               ; preds = %48
  br label %50

50:                                               ; preds = %49
  call void @llvm.lifetime.start.p0(i64 8, ptr %11) #17
  %51 = load ptr, ptr %4, align 8, !tbaa !13
  store ptr %51, ptr %11, align 8, !tbaa !13
  call void @llvm.lifetime.start.p0(i64 8, ptr %12) #17
  %52 = load i64, ptr %10, align 8, !tbaa !15
  %53 = load ptr, ptr %8, align 8, !tbaa !13
  %54 = getelementptr inbounds nuw %struct._zval_struct, ptr %53, i32 0, i32 0
  %55 = load i64, ptr %54, align 8, !tbaa !17
  %56 = icmp sge i64 %52, %55
  br i1 %56, label %57, label %59

57:                                               ; preds = %50
  %58 = load ptr, ptr %7, align 8, !tbaa !13
  br label %61

59:                                               ; preds = %50
  %60 = load ptr, ptr %8, align 8, !tbaa !13
  br label %61

61:                                               ; preds = %59, %57
  %62 = phi ptr [ %58, %57 ], [ %60, %59 ]
  store ptr %62, ptr %12, align 8, !tbaa !13
  call void @llvm.lifetime.start.p0(i64 8, ptr %13) #17
  %63 = load ptr, ptr %12, align 8, !tbaa !13
  %64 = getelementptr inbounds nuw %struct._zval_struct, ptr %63, i32 0, i32 0
  %65 = load ptr, ptr %64, align 8, !tbaa !17
  store ptr %65, ptr %13, align 8, !tbaa !83
  call void @llvm.lifetime.start.p0(i64 4, ptr %14) #17
  %66 = load ptr, ptr %12, align 8, !tbaa !13
  %67 = getelementptr inbounds nuw %struct._zval_struct, ptr %66, i32 0, i32 1
  %68 = load i32, ptr %67, align 8, !tbaa !17
  store i32 %68, ptr %14, align 4, !tbaa !4
  br label %69

69:                                               ; preds = %61
  %70 = load ptr, ptr %13, align 8, !tbaa !83
  %71 = load ptr, ptr %11, align 8, !tbaa !13
  %72 = getelementptr inbounds nuw %struct._zval_struct, ptr %71, i32 0, i32 0
  store ptr %70, ptr %72, align 8, !tbaa !17
  %73 = load i32, ptr %14, align 4, !tbaa !4
  %74 = load ptr, ptr %11, align 8, !tbaa !13
  %75 = getelementptr inbounds nuw %struct._zval_struct, ptr %74, i32 0, i32 1
  store i32 %73, ptr %75, align 8, !tbaa !17
  br label %76

76:                                               ; preds = %69
  br label %77

77:                                               ; preds = %76
  call void @llvm.lifetime.end.p0(i64 4, ptr %14) #17
  call void @llvm.lifetime.end.p0(i64 8, ptr %13) #17
  call void @llvm.lifetime.end.p0(i64 8, ptr %12) #17
  call void @llvm.lifetime.end.p0(i64 8, ptr %11) #17
  br label %78

78:                                               ; preds = %77
  br label %79

79:                                               ; preds = %78
  store i32 1, ptr %15, align 4
  br label %98

80:                                               ; No predecessors!
  br label %81

81:                                               ; preds = %80
  br label %97

82:                                               ; preds = %34
  %83 = load ptr, ptr %8, align 8, !tbaa !13
  %84 = call zeroext i8 @zval_get_type(ptr noundef %83)
  %85 = zext i8 %84 to i32
  %86 = icmp eq i32 %85, 5
  br i1 %86, label %87, label %96

87:                                               ; preds = %82
  %88 = load i64, ptr %10, align 8, !tbaa !15
  %89 = sitofp i64 %88 to double
  %90 = call i64 @zend_dval_to_lval(double noundef %89)
  %91 = load i64, ptr %10, align 8, !tbaa !15
  %92 = icmp eq i64 %90, %91
  br i1 %92, label %93, label %96

93:                                               ; preds = %87
  %94 = load i64, ptr %10, align 8, !tbaa !15
  %95 = sitofp i64 %94 to double
  store double %95, ptr %9, align 8, !tbaa !94
  store i32 8, ptr %15, align 4
  br label %98

96:                                               ; preds = %87, %82
  store i32 9, ptr %15, align 4
  br label %98

97:                                               ; preds = %81
  store i32 0, ptr %15, align 4
  br label %98

98:                                               ; preds = %96, %93, %97, %79
  call void @llvm.lifetime.end.p0(i64 8, ptr %10) #17
  %99 = load i32, ptr %15, align 4
  switch i32 %99, label %252 [
    i32 0, label %100
    i32 8, label %121
    i32 9, label %209
  ]

100:                                              ; preds = %98
  br label %251

101:                                              ; preds = %3
  %102 = load ptr, ptr %7, align 8, !tbaa !13
  %103 = call zeroext i8 @zval_get_type(ptr noundef %102)
  %104 = zext i8 %103 to i32
  %105 = icmp eq i32 %104, 5
  br i1 %105, label %106, label %208

106:                                              ; preds = %101
  %107 = load ptr, ptr %7, align 8, !tbaa !13
  %108 = getelementptr inbounds nuw %struct._zval_struct, ptr %107, i32 0, i32 0
  %109 = load double, ptr %108, align 8, !tbaa !17
  store double %109, ptr %9, align 8, !tbaa !94
  %110 = load ptr, ptr %8, align 8, !tbaa !13
  %111 = call zeroext i8 @zval_get_type(ptr noundef %110)
  %112 = zext i8 %111 to i32
  %113 = icmp eq i32 %112, 5
  %114 = xor i1 %113, true
  %115 = xor i1 %114, true
  %116 = zext i1 %115 to i32
  %117 = sext i32 %116 to i64
  %118 = call i64 @llvm.expect.i64(i64 %117, i64 1)
  %119 = icmp ne i64 %118, 0
  br i1 %119, label %120, label %155

120:                                              ; preds = %106
  br label %121

121:                                              ; preds = %120, %98
  br label %122

122:                                              ; preds = %121
  br label %123

123:                                              ; preds = %122
  call void @llvm.lifetime.start.p0(i64 8, ptr %16) #17
  %124 = load ptr, ptr %4, align 8, !tbaa !13
  store ptr %124, ptr %16, align 8, !tbaa !13
  call void @llvm.lifetime.start.p0(i64 8, ptr %17) #17
  %125 = load double, ptr %9, align 8, !tbaa !94
  %126 = load ptr, ptr %8, align 8, !tbaa !13
  %127 = getelementptr inbounds nuw %struct._zval_struct, ptr %126, i32 0, i32 0
  %128 = load double, ptr %127, align 8, !tbaa !17
  %129 = fcmp oge double %125, %128
  br i1 %129, label %130, label %132

130:                                              ; preds = %123
  %131 = load ptr, ptr %7, align 8, !tbaa !13
  br label %134

132:                                              ; preds = %123
  %133 = load ptr, ptr %8, align 8, !tbaa !13
  br label %134

134:                                              ; preds = %132, %130
  %135 = phi ptr [ %131, %130 ], [ %133, %132 ]
  store ptr %135, ptr %17, align 8, !tbaa !13
  call void @llvm.lifetime.start.p0(i64 8, ptr %18) #17
  %136 = load ptr, ptr %17, align 8, !tbaa !13
  %137 = getelementptr inbounds nuw %struct._zval_struct, ptr %136, i32 0, i32 0
  %138 = load ptr, ptr %137, align 8, !tbaa !17
  store ptr %138, ptr %18, align 8, !tbaa !83
  call void @llvm.lifetime.start.p0(i64 4, ptr %19) #17
  %139 = load ptr, ptr %17, align 8, !tbaa !13
  %140 = getelementptr inbounds nuw %struct._zval_struct, ptr %139, i32 0, i32 1
  %141 = load i32, ptr %140, align 8, !tbaa !17
  store i32 %141, ptr %19, align 4, !tbaa !4
  br label %142

142:                                              ; preds = %134
  %143 = load ptr, ptr %18, align 8, !tbaa !83
  %144 = load ptr, ptr %16, align 8, !tbaa !13
  %145 = getelementptr inbounds nuw %struct._zval_struct, ptr %144, i32 0, i32 0
  store ptr %143, ptr %145, align 8, !tbaa !17
  %146 = load i32, ptr %19, align 4, !tbaa !4
  %147 = load ptr, ptr %16, align 8, !tbaa !13
  %148 = getelementptr inbounds nuw %struct._zval_struct, ptr %147, i32 0, i32 1
  store i32 %146, ptr %148, align 8, !tbaa !17
  br label %149

149:                                              ; preds = %142
  br label %150

150:                                              ; preds = %149
  call void @llvm.lifetime.end.p0(i64 4, ptr %19) #17
  call void @llvm.lifetime.end.p0(i64 8, ptr %18) #17
  call void @llvm.lifetime.end.p0(i64 8, ptr %17) #17
  call void @llvm.lifetime.end.p0(i64 8, ptr %16) #17
  br label %151

151:                                              ; preds = %150
  br label %152

152:                                              ; preds = %151
  store i32 1, ptr %15, align 4
  br label %252

153:                                              ; No predecessors!
  br label %154

154:                                              ; preds = %153
  br label %207

155:                                              ; preds = %106
  %156 = load ptr, ptr %8, align 8, !tbaa !13
  %157 = call zeroext i8 @zval_get_type(ptr noundef %156)
  %158 = zext i8 %157 to i32
  %159 = icmp eq i32 %158, 4
  br i1 %159, label %160, label %205

160:                                              ; preds = %155
  %161 = load ptr, ptr %8, align 8, !tbaa !13
  %162 = getelementptr inbounds nuw %struct._zval_struct, ptr %161, i32 0, i32 0
  %163 = load i64, ptr %162, align 8, !tbaa !17
  %164 = sitofp i64 %163 to double
  %165 = call i64 @zend_dval_to_lval(double noundef %164)
  %166 = load ptr, ptr %8, align 8, !tbaa !13
  %167 = getelementptr inbounds nuw %struct._zval_struct, ptr %166, i32 0, i32 0
  %168 = load i64, ptr %167, align 8, !tbaa !17
  %169 = icmp eq i64 %165, %168
  br i1 %169, label %170, label %205

170:                                              ; preds = %160
  br label %171

171:                                              ; preds = %170
  br label %172

172:                                              ; preds = %171
  call void @llvm.lifetime.start.p0(i64 8, ptr %20) #17
  %173 = load ptr, ptr %4, align 8, !tbaa !13
  store ptr %173, ptr %20, align 8, !tbaa !13
  call void @llvm.lifetime.start.p0(i64 8, ptr %21) #17
  %174 = load double, ptr %9, align 8, !tbaa !94
  %175 = load ptr, ptr %8, align 8, !tbaa !13
  %176 = getelementptr inbounds nuw %struct._zval_struct, ptr %175, i32 0, i32 0
  %177 = load i64, ptr %176, align 8, !tbaa !17
  %178 = sitofp i64 %177 to double
  %179 = fcmp oge double %174, %178
  br i1 %179, label %180, label %182

180:                                              ; preds = %172
  %181 = load ptr, ptr %7, align 8, !tbaa !13
  br label %184

182:                                              ; preds = %172
  %183 = load ptr, ptr %8, align 8, !tbaa !13
  br label %184

184:                                              ; preds = %182, %180
  %185 = phi ptr [ %181, %180 ], [ %183, %182 ]
  store ptr %185, ptr %21, align 8, !tbaa !13
  call void @llvm.lifetime.start.p0(i64 8, ptr %22) #17
  %186 = load ptr, ptr %21, align 8, !tbaa !13
  %187 = getelementptr inbounds nuw %struct._zval_struct, ptr %186, i32 0, i32 0
  %188 = load ptr, ptr %187, align 8, !tbaa !17
  store ptr %188, ptr %22, align 8, !tbaa !83
  call void @llvm.lifetime.start.p0(i64 4, ptr %23) #17
  %189 = load ptr, ptr %21, align 8, !tbaa !13
  %190 = getelementptr inbounds nuw %struct._zval_struct, ptr %189, i32 0, i32 1
  %191 = load i32, ptr %190, align 8, !tbaa !17
  store i32 %191, ptr %23, align 4, !tbaa !4
  br label %192

192:                                              ; preds = %184
  %193 = load ptr, ptr %22, align 8, !tbaa !83
  %194 = load ptr, ptr %20, align 8, !tbaa !13
  %195 = getelementptr inbounds nuw %struct._zval_struct, ptr %194, i32 0, i32 0
  store ptr %193, ptr %195, align 8, !tbaa !17
  %196 = load i32, ptr %23, align 4, !tbaa !4
  %197 = load ptr, ptr %20, align 8, !tbaa !13
  %198 = getelementptr inbounds nuw %struct._zval_struct, ptr %197, i32 0, i32 1
  store i32 %196, ptr %198, align 8, !tbaa !17
  br label %199

199:                                              ; preds = %192
  br label %200

200:                                              ; preds = %199
  call void @llvm.lifetime.end.p0(i64 4, ptr %23) #17
  call void @llvm.lifetime.end.p0(i64 8, ptr %22) #17
  call void @llvm.lifetime.end.p0(i64 8, ptr %21) #17
  call void @llvm.lifetime.end.p0(i64 8, ptr %20) #17
  br label %201

201:                                              ; preds = %200
  br label %202

202:                                              ; preds = %201
  store i32 1, ptr %15, align 4
  br label %252

203:                                              ; No predecessors!
  br label %204

204:                                              ; preds = %203
  br label %206

205:                                              ; preds = %160, %155
  br label %209

206:                                              ; preds = %204
  br label %207

207:                                              ; preds = %206, %154
  br label %250

208:                                              ; preds = %101
  br label %209

209:                                              ; preds = %208, %98, %205
  br label %210

210:                                              ; preds = %209
  br label %211

211:                                              ; preds = %210
  call void @llvm.lifetime.start.p0(i64 8, ptr %24) #17
  %212 = load ptr, ptr %4, align 8, !tbaa !13
  store ptr %212, ptr %24, align 8, !tbaa !13
  call void @llvm.lifetime.start.p0(i64 8, ptr %25) #17
  %213 = load ptr, ptr %7, align 8, !tbaa !13
  %214 = load ptr, ptr %8, align 8, !tbaa !13
  %215 = call i32 @zend_compare(ptr noundef %213, ptr noundef %214)
  %216 = icmp sge i32 %215, 0
  br i1 %216, label %217, label %219

217:                                              ; preds = %211
  %218 = load ptr, ptr %7, align 8, !tbaa !13
  br label %221

219:                                              ; preds = %211
  %220 = load ptr, ptr %8, align 8, !tbaa !13
  br label %221

221:                                              ; preds = %219, %217
  %222 = phi ptr [ %218, %217 ], [ %220, %219 ]
  store ptr %222, ptr %25, align 8, !tbaa !13
  call void @llvm.lifetime.start.p0(i64 8, ptr %26) #17
  %223 = load ptr, ptr %25, align 8, !tbaa !13
  %224 = getelementptr inbounds nuw %struct._zval_struct, ptr %223, i32 0, i32 0
  %225 = load ptr, ptr %224, align 8, !tbaa !17
  store ptr %225, ptr %26, align 8, !tbaa !83
  call void @llvm.lifetime.start.p0(i64 4, ptr %27) #17
  %226 = load ptr, ptr %25, align 8, !tbaa !13
  %227 = getelementptr inbounds nuw %struct._zval_struct, ptr %226, i32 0, i32 1
  %228 = load i32, ptr %227, align 8, !tbaa !17
  store i32 %228, ptr %27, align 4, !tbaa !4
  br label %229

229:                                              ; preds = %221
  %230 = load ptr, ptr %26, align 8, !tbaa !83
  %231 = load ptr, ptr %24, align 8, !tbaa !13
  %232 = getelementptr inbounds nuw %struct._zval_struct, ptr %231, i32 0, i32 0
  store ptr %230, ptr %232, align 8, !tbaa !17
  %233 = load i32, ptr %27, align 4, !tbaa !4
  %234 = load ptr, ptr %24, align 8, !tbaa !13
  %235 = getelementptr inbounds nuw %struct._zval_struct, ptr %234, i32 0, i32 1
  store i32 %233, ptr %235, align 8, !tbaa !17
  br label %236

236:                                              ; preds = %229
  br label %237

237:                                              ; preds = %236
  %238 = load i32, ptr %27, align 4, !tbaa !4
  %239 = and i32 %238, 65280
  %240 = icmp ne i32 %239, 0
  br i1 %240, label %241, label %245

241:                                              ; preds = %237
  %242 = load ptr, ptr %26, align 8, !tbaa !83
  %243 = getelementptr inbounds nuw %struct._zend_refcounted, ptr %242, i32 0, i32 0
  %244 = call i32 @zend_gc_addref(ptr noundef %243)
  br label %245

245:                                              ; preds = %241, %237
  call void @llvm.lifetime.end.p0(i64 4, ptr %27) #17
  call void @llvm.lifetime.end.p0(i64 8, ptr %26) #17
  call void @llvm.lifetime.end.p0(i64 8, ptr %25) #17
  call void @llvm.lifetime.end.p0(i64 8, ptr %24) #17
  br label %246

246:                                              ; preds = %245
  br label %247

247:                                              ; preds = %246
  store i32 1, ptr %15, align 4
  br label %252

248:                                              ; No predecessors!
  br label %249

249:                                              ; preds = %248
  br label %250

250:                                              ; preds = %249, %207
  br label %251

251:                                              ; preds = %250, %100
  store i32 0, ptr %15, align 4
  br label %252

252:                                              ; preds = %251, %247, %202, %152, %98
  call void @llvm.lifetime.end.p0(i64 8, ptr %9) #17
  call void @llvm.lifetime.end.p0(i64 8, ptr %8) #17
  call void @llvm.lifetime.end.p0(i64 8, ptr %7) #17
  %253 = load i32, ptr %15, align 4
  switch i32 %253, label %255 [
    i32 0, label %254
    i32 1, label %254
  ]

254:                                              ; preds = %252, %252
  ret void

255:                                              ; preds = %252
  unreachable
}