; Function Attrs: nounwind uwtable
define hidden void @zflf_max_2(ptr noundef writeonly captures(none) initializes((0, 12)) %0, ptr noundef %1, ptr noundef %2) local_unnamed_addr #2 {
  %4 = getelementptr inbounds nuw i8, ptr %1, i64 8
  %5 = load i8, ptr %4, align 8, !tbaa !8
  switch i8 %5, label %.thread69 [
    i8 4, label %6
    i8 5, label %25
  ]

6:                                                ; preds = %3
  %7 = load i64, ptr %1, align 8, !tbaa !8
  %8 = getelementptr inbounds nuw i8, ptr %2, i64 8
  %9 = load i8, ptr %8, align 8, !tbaa !8
  switch i8 %9, label %.thread69 [
    i8 4, label %.thread
    i8 5, label %16
  ], !prof !84

.thread:                                          ; preds = %6
  %10 = load i64, ptr %2, align 8, !tbaa !8
  %.not = icmp slt i64 %7, %10
  %11 = select i1 %.not, ptr %2, ptr %1
  %12 = load ptr, ptr %11, align 8, !tbaa !8
  %13 = getelementptr inbounds nuw i8, ptr %11, i64 8
  %14 = load i32, ptr %13, align 8, !tbaa !8
  store ptr %12, ptr %0, align 8, !tbaa !8
  %15 = getelementptr inbounds nuw i8, ptr %0, i64 8
  store i32 %14, ptr %15, align 8, !tbaa !8
  br label %67

16:                                               ; preds = %6
  %17 = sitofp i64 %7 to double
  %18 = fcmp oge double %17, 0x43E0000000000000
  %19 = fcmp olt double %17, 0xC3E0000000000000
  %or.cond.i64 = or i1 %18, %19
  br i1 %or.cond.i64, label %20, label %22

20:                                               ; preds = %16
  %21 = tail call i64 @zend_dval_to_lval_slow(double noundef %17) #21
  br label %zend_dval_to_lval.exit66

22:                                               ; preds = %16
  %23 = fptosi double %17 to i64
  br label %zend_dval_to_lval.exit66

zend_dval_to_lval.exit66:                         ; preds = %20, %22
  %.0.i65 = phi i64 [ %21, %20 ], [ %23, %22 ]
  %24 = icmp eq i64 %.0.i65, %7
  br i1 %24, label %29, label %.thread69

25:                                               ; preds = %3
  %26 = load double, ptr %1, align 8, !tbaa !8
  %27 = getelementptr inbounds nuw i8, ptr %2, i64 8
  %28 = load i8, ptr %27, align 8, !tbaa !8
  switch i8 %28, label %.thread69 [
    i8 5, label %29
    i8 4, label %37
  ], !prof !84

29:                                               ; preds = %25, %zend_dval_to_lval.exit66
  %.1 = phi double [ %26, %25 ], [ %17, %zend_dval_to_lval.exit66 ]
  %30 = load double, ptr %2, align 8, !tbaa !8
  %31 = fcmp oge double %.1, %30
  %32 = select i1 %31, ptr %1, ptr %2
  %33 = load ptr, ptr %32, align 8, !tbaa !8
  %34 = getelementptr inbounds nuw i8, ptr %32, i64 8
  %35 = load i32, ptr %34, align 8, !tbaa !8
  store ptr %33, ptr %0, align 8, !tbaa !8
  %36 = getelementptr inbounds nuw i8, ptr %0, i64 8
  store i32 %35, ptr %36, align 8, !tbaa !8
  br label %67

37:                                               ; preds = %25
  %38 = load i64, ptr %2, align 8, !tbaa !8
  %39 = sitofp i64 %38 to double
  %40 = fcmp oge double %39, 0x43E0000000000000
  %41 = fcmp olt double %39, 0xC3E0000000000000
  %or.cond.i = or i1 %40, %41
  br i1 %or.cond.i, label %42, label %44

42:                                               ; preds = %37
  %43 = tail call i64 @zend_dval_to_lval_slow(double noundef %39) #21
  %.pre = load i64, ptr %2, align 8, !tbaa !8
  br label %zend_dval_to_lval.exit

44:                                               ; preds = %37
  %45 = fptosi double %39 to i64
  br label %zend_dval_to_lval.exit

zend_dval_to_lval.exit:                           ; preds = %42, %44
  %46 = phi i64 [ %.pre, %42 ], [ %38, %44 ]
  %.0.i = phi i64 [ %43, %42 ], [ %45, %44 ]
  %47 = icmp eq i64 %.0.i, %46
  br i1 %47, label %48, label %.thread69

48:                                               ; preds = %zend_dval_to_lval.exit
  %49 = sitofp i64 %46 to double
  %50 = fcmp oge double %26, %49
  %51 = select i1 %50, ptr %1, ptr %2
  %52 = load ptr, ptr %51, align 8, !tbaa !8
  %53 = getelementptr inbounds nuw i8, ptr %51, i64 8
  %54 = load i32, ptr %53, align 8, !tbaa !8
  store ptr %52, ptr %0, align 8, !tbaa !8
  %55 = getelementptr inbounds nuw i8, ptr %0, i64 8
  store i32 %54, ptr %55, align 8, !tbaa !8
  br label %67

.thread69:                                        ; preds = %25, %3, %6, %zend_dval_to_lval.exit66, %zend_dval_to_lval.exit
  %56 = tail call i32 @zend_compare(ptr noundef nonnull %1, ptr noundef %2) #21
  %57 = icmp slt i32 %56, 0
  %58 = select i1 %57, ptr %2, ptr %1
  %59 = load ptr, ptr %58, align 8, !tbaa !8
  %60 = getelementptr inbounds nuw i8, ptr %58, i64 8
  %61 = load i32, ptr %60, align 8, !tbaa !8
  store ptr %59, ptr %0, align 8, !tbaa !8
  %62 = getelementptr inbounds nuw i8, ptr %0, i64 8
  store i32 %61, ptr %62, align 8, !tbaa !8
  %63 = and i32 %61, 65280
  %.not63 = icmp eq i32 %63, 0
  br i1 %.not63, label %67, label %64

64:                                               ; preds = %.thread69
  %65 = load i32, ptr %59, align 4, !tbaa !11
  %66 = add i32 %65, 1
  store i32 %66, ptr %59, align 4, !tbaa !11
  br label %67

67:                                               ; preds = %.thread, %.thread69, %64, %48, %29
  ret void
}